target datalayout = "e-m:e-p270:32:32-p271:32:32-p272:64:64-i64:64-i128:128-f80:128-n8:16:32:64-S128"
target triple = "x86_64-pc-linux-gnu"

%struct._packet_info = type { ptr, ptr, i32, i32, %struct.nstime_t, %struct.nstime_t, %struct.nstime_t, i8, ptr, ptr, ptr, ptr, %struct._address, %struct._address, %struct._address, %struct._address, %struct._address, %struct._address, i32, ptr, i8, [3 x i8], %struct.anon, i32, i32, i32, i32, ptr, i8, ptr, ptr, i16, i16, i32, i32, i16, i32, i32, ptr, ptr, ptr, i8, i8, i16, i16, i16, i32, i16, i16, ptr, ptr, ptr, ptr, ptr, i32, i32 }
%struct.nstime_t = type { i64, i32 }
%struct._address = type { i32, i32, ptr, ptr }
%struct.anon = type { i8, [3 x i8] }

@hf_zvt_time = internal global i32 0, align 4

; Function Attrs: inlinehint null_pointer_is_valid sspstrong uwtable
define internal i32 @dissect_zvt_time(ptr noundef %0, i32 noundef %1, ptr noundef %2, ptr noundef %3) #4 {
  %5 = alloca ptr, align 8
  %6 = alloca i32, align 4
  %7 = alloca ptr, align 8
  %8 = alloca ptr, align 8
  %9 = alloca ptr, align 8
  %10 = alloca ptr, align 8
  store ptr %0, ptr %5, align 8
  store i32 %1, ptr %6, align 4
  store ptr %2, ptr %7, align 8
  store ptr %3, ptr %8, align 8
  call void @llvm.lifetime.start.p0(i64 8, ptr %9) #7
  %11 = load ptr, ptr %7, align 8
  %12 = getelementptr inbounds nuw %struct._packet_info, ptr %11, i32 0, i32 51
  %13 = load ptr, ptr %12, align 8
  %14 = load ptr, ptr %5, align 8
  %15 = load i32, ptr %6, align 4
  %16 = call ptr @tvb_bcd_dig_to_str_be(ptr noundef %13, ptr noundef %14, i32 noundef %15, i32 noundef 3, ptr noundef null, i1 noundef zeroext false)
  store ptr %16, ptr %9, align 8
  call void @llvm.lifetime.start.p0(i64 8, ptr %10) #7
  %17 = load ptr, ptr %7, align 8
  %18 = getelementptr inbounds nuw %struct._packet_info, ptr %17, i32 0, i32 51
  %19 = load ptr, ptr %18, align 8
  %20 = call noalias ptr @wmem_alloc(ptr noundef %19, i64 noundef 9) #8
  store ptr %20, ptr %10, align 8
  %21 = load ptr, ptr %9, align 8
  %22 = getelementptr i8, ptr %21, i64 0
  %23 = load i8, ptr %22, align 1
  %24 = load ptr, ptr %10, align 8
  %25 = getelementptr i8, ptr %24, i64 0
  store i8 %23, ptr %25, align 1
  %26 = load ptr, ptr %9, align 8
  %27 = getelementptr i8, ptr %26, i64 1
  %28 = load i8, ptr %27, align 1
  %29 = load ptr, ptr %10, align 8
  %30 = getelementptr i8, ptr %29, i64 1
  store i8 %28, ptr %30, align 1
  %31 = load ptr, ptr %10, align 8
  %32 = getelementptr i8, ptr %31, i64 2
  store i8 58, ptr %32, align 1
  %33 = load ptr, ptr %9, align 8
  %34 = getelementptr i8, ptr %33, i64 2
  %35 = load i8, ptr %34, align 1
  %36 = load ptr, ptr %10, align 8
  %37 = getelementptr i8, ptr %36, i64 3
  store i8 %35, ptr %37, align 1
  %38 = load ptr, ptr %9, align 8
  %39 = getelementptr i8, ptr %38, i64 3
  %40 = load i8, ptr %39, align 1
  %41 = load ptr, ptr %10, align 8
  %42 = getelementptr i8, ptr %41, i64 4
  store i8 %40, ptr %42, align 1
  %43 = load ptr, ptr %10, align 8
  %44 = getelementptr i8, ptr %43, i64 5
  store i8 58, ptr %44, align 1
  %45 = load ptr, ptr %9, align 8
  %46 = getelementptr i8, ptr %45, i64 4
  %47 = load i8, ptr %46, align 1
  %48 = load ptr, ptr %10, align 8
  %49 = getelementptr i8, ptr %48, i64 6
  store i8 %47, ptr %49, align 1
  %50 = load ptr, ptr %9, align 8
  %51 = getelementptr i8, ptr %50, i64 5
  %52 = load i8, ptr %51, align 1
  %53 = load ptr, ptr %10, align 8
  %54 = getelementptr i8, ptr %53, i64 7
  store i8 %52, ptr %54, align 1
  %55 = load ptr, ptr %10, align 8
  %56 = getelementptr i8, ptr %55, i64 8
  store i8 0, ptr %56, align 1
  %57 = load ptr, ptr %8, align 8
  %58 = load i32, ptr @hf_zvt_time, align 4
  %59 = load ptr, ptr %5, align 8
  %60 = load i32, ptr %6, align 4
  %61 = load ptr, ptr %10, align 8
  %62 = call ptr @proto_tree_add_string(ptr noundef %57, i32 noundef %58, ptr noundef %59, i32 noundef %60, i32 noundef 3, ptr noundef %61)
  call void @llvm.lifetime.end.p0(i64 8, ptr %10) #7
  call void @llvm.lifetime.end.p0(i64 8, ptr %9) #7
  ret i32 3
}