; Function Attrs: inlinehint null_pointer_is_valid sspstrong uwtable
define internal noundef i32 @dissect_zvt_time(ptr noundef %0, i32 noundef %1, ptr noundef readonly captures(none) %2, ptr noundef %3) #4 {
  %5 = getelementptr inbounds nuw i8, ptr %2, i64 408
  %6 = load ptr, ptr %5, align 8
  %7 = tail call ptr @tvb_bcd_dig_to_str_be(ptr noundef %6, ptr noundef %0, i32 noundef %1, i32 noundef 3, ptr noundef null, i1 noundef zeroext false)
  %8 = load ptr, ptr %5, align 8
  %9 = tail call noalias dereferenceable_or_null(9) ptr @wmem_alloc(ptr noundef %8, i64 noundef 9) #8
  %10 = load i8, ptr %7, align 1
  store i8 %10, ptr %9, align 1
  %11 = getelementptr i8, ptr %7, i64 1
  %12 = load i8, ptr %11, align 1
  %13 = getelementptr i8, ptr %9, i64 1
  store i8 %12, ptr %13, align 1
  %14 = getelementptr i8, ptr %9, i64 2
  store i8 58, ptr %14, align 1
  %15 = getelementptr i8, ptr %7, i64 2
  %16 = load i8, ptr %15, align 1
  %17 = getelementptr i8, ptr %9, i64 3
  store i8 %16, ptr %17, align 1
  %18 = getelementptr i8, ptr %7, i64 3
  %19 = load i8, ptr %18, align 1
  %20 = getelementptr i8, ptr %9, i64 4
  store i8 %19, ptr %20, align 1
  %21 = getelementptr i8, ptr %9, i64 5
  store i8 58, ptr %21, align 1
  %22 = getelementptr i8, ptr %7, i64 4
  %23 = load i8, ptr %22, align 1
  %24 = getelementptr i8, ptr %9, i64 6
  store i8 %23, ptr %24, align 1
  %25 = getelementptr i8, ptr %7, i64 5
  %26 = load i8, ptr %25, align 1
  %27 = getelementptr i8, ptr %9, i64 7
  store i8 %26, ptr %27, align 1
  %28 = getelementptr i8, ptr %9, i64 8
  store i8 0, ptr %28, align 1
  %29 = load i32, ptr @hf_zvt_time, align 4
  %30 = tail call ptr @proto_tree_add_string(ptr noundef %3, i32 noundef %29, ptr noundef %0, i32 noundef %1, i32 noundef 3, ptr noundef %9)
  ret i32 3
}